target datalayout = "e-m:e-p270:32:32-p271:32:32-p272:64:64-i64:64-f80:128-n8:16:32:64-S128"
target triple = "x86_64-pc-linux-gnu"

@.str = private unnamed_addr constant [3 x i8] c"%d\00", align 1
@.str.1 = private unnamed_addr constant [5 x i8] c"%d%d\00", align 1
@.str.2 = private unnamed_addr constant [4 x i8] c"%d\0A\00", align 1

; Function Attrs: noinline nounwind uwtable
define dso_local i32 @sum(i32 %0, i32 %1) #0 {
  %3 = alloca i32, align 4
  %4 = alloca i32, align 4
  %5 = alloca i8*, align 8
  %6 = alloca i64, align 8
  %7 = alloca i64, align 8
  %8 = alloca i32, align 4
  %9 = alloca i32, align 4
  %10 = alloca i32, align 4
  store i32 %0, i32* %3, align 4
  store i32 %1, i32* %4, align 4
  %11 = load i32, i32* %3, align 4
  %12 = zext i32 %11 to i64
  %13 = load i32, i32* %4, align 4
  %14 = zext i32 %13 to i64
  %15 = call i8* @llvm.stacksave()
  store i8* %15, i8** %5, align 8
  %16 = mul nuw i64 %12, %14
  %17 = alloca i32, i64 %16, align 16
  store i64 %12, i64* %6, align 8
  store i64 %14, i64* %7, align 8
  store i32 0, i32* %10, align 4
  %18 = load i32, i32* %3, align 4
  %19 = icmp eq i32 %18, 1
  br i1 %19, label %23, label %20

20:                                               ; preds = %2
  %21 = load i32, i32* %4, align 4
  %22 = icmp eq i32 %21, 1
  br i1 %22, label %23, label %40

23:                                               ; preds = %20, %2
  store i32 0, i32* %8, align 4
  br label %24

24:                                               ; preds = %36, %23
  %25 = load i32, i32* %8, align 4
  %26 = load i32, i32* %3, align 4
  %27 = load i32, i32* %4, align 4
  %28 = add nsw i32 %26, %27
  %29 = sub nsw i32 %28, 1
  %30 = icmp slt i32 %25, %29
  br i1 %30, label %31, label %39

31:                                               ; preds = %24
  %32 = call i32 (i8*, ...) @__isoc99_scanf(i8* getelementptr inbounds ([3 x i8], [3 x i8]* @.str, i64 0, i64 0), i32* %9)
  %33 = load i32, i32* %9, align 4
  %34 = load i32, i32* %10, align 4
  %35 = add nsw i32 %34, %33
  store i32 %35, i32* %10, align 4
  br label %36

36:                                               ; preds = %31
  %37 = load i32, i32* %8, align 4
  %38 = add nsw i32 %37, 1
  store i32 %38, i32* %8, align 4
  br label %24

39:                                               ; preds = %24
  br label %122

40:                                               ; preds = %20
  store i32 0, i32* %8, align 4
  br label %41

41:                                               ; preds = %63, %40
  %42 = load i32, i32* %8, align 4
  %43 = load i32, i32* %3, align 4
  %44 = icmp slt i32 %42, %43
  br i1 %44, label %45, label %66

45:                                               ; preds = %41
  store i32 0, i32* %9, align 4
  br label %46

46:                                               ; preds = %59, %45
  %47 = load i32, i32* %9, align 4
  %48 = load i32, i32* %4, align 4
  %49 = icmp slt i32 %47, %48
  br i1 %49, label %50, label %62

50:                                               ; preds = %46
  %51 = load i32, i32* %8, align 4
  %52 = sext i32 %51 to i64
  %53 = mul nsw i64 %52, %14
  %54 = getelementptr inbounds i32, i32* %17, i64 %53
  %55 = load i32, i32* %9, align 4
  %56 = sext i32 %55 to i64
  %57 = getelementptr inbounds i32, i32* %54, i64 %56
  %58 = call i32 (i8*, ...) @__isoc99_scanf(i8* getelementptr inbounds ([3 x i8], [3 x i8]* @.str, i64 0, i64 0), i32* %57)
  br label %59

59:                                               ; preds = %50
  %60 = load i32, i32* %9, align 4
  %61 = add nsw i32 %60, 1
  store i32 %61, i32* %9, align 4
  br label %46

62:                                               ; preds = %46
  br label %63

63:                                               ; preds = %62
  %64 = load i32, i32* %8, align 4
  %65 = add nsw i32 %64, 1
  store i32 %65, i32* %8, align 4
  br label %41

66:                                               ; preds = %41
  store i32 0, i32* %8, align 4
  br label %67

67:                                               ; preds = %90, %66
  %68 = load i32, i32* %8, align 4
  %69 = load i32, i32* %3, align 4
  %70 = icmp slt i32 %68, %69
  br i1 %70, label %71, label %93

71:                                               ; preds = %67
  %72 = load i32, i32* %8, align 4
  %73 = sext i32 %72 to i64
  %74 = mul nsw i64 %73, %14
  %75 = getelementptr inbounds i32, i32* %17, i64 %74
  %76 = getelementptr inbounds i32, i32* %75, i64 0
  %77 = load i32, i32* %76, align 4
  %78 = load i32, i32* %8, align 4
  %79 = sext i32 %78 to i64
  %80 = mul nsw i64 %79, %14
  %81 = getelementptr inbounds i32, i32* %17, i64 %80
  %82 = load i32, i32* %4, align 4
  %83 = sub nsw i32 %82, 1
  %84 = sext i32 %83 to i64
  %85 = getelementptr inbounds i32, i32* %81, i64 %84
  %86 = load i32, i32* %85, align 4
  %87 = add nsw i32 %77, %86
  %88 = load i32, i32* %10, align 4
  %89 = add nsw i32 %88, %87
  store i32 %89, i32* %10, align 4
  br label %90

90:                                               ; preds = %71
  %91 = load i32, i32* %8, align 4
  %92 = add nsw i32 %91, 1
  store i32 %92, i32* %8, align 4
  br label %67

93:                                               ; preds = %67
  store i32 1, i32* %9, align 4
  br label %94

94:                                               ; preds = %118, %93
  %95 = load i32, i32* %9, align 4
  %96 = load i32, i32* %4, align 4
  %97 = sub nsw i32 %96, 1
  %98 = icmp slt i32 %95, %97
  br i1 %98, label %99, label %121

99:                                               ; preds = %94
  %100 = mul nsw i64 0, %14
  %101 = getelementptr inbounds i32, i32* %17, i64 %100
  %102 = load i32, i32* %9, align 4
  %103 = sext i32 %102 to i64
  %104 = getelementptr inbounds i32, i32* %101, i64 %103
  %105 = load i32, i32* %104, align 4
  %106 = load i32, i32* %3, align 4
  %107 = sub nsw i32 %106, 1
  %108 = sext i32 %107 to i64
  %109 = mul nsw i64 %108, %14
  %110 = getelementptr inbounds i32, i32* %17, i64 %109
  %111 = load i32, i32* %9, align 4
  %112 = sext i32 %111 to i64
  %113 = getelementptr inbounds i32, i32* %110, i64 %112
  %114 = load i32, i32* %113, align 4
  %115 = add nsw i32 %105, %114
  %116 = load i32, i32* %10, align 4
  %117 = add nsw i32 %116, %115
  store i32 %117, i32* %10, align 4
  br label %118

118:                                              ; preds = %99
  %119 = load i32, i32* %9, align 4
  %120 = add nsw i32 %119, 1
  store i32 %120, i32* %9, align 4
  br label %94

121:                                              ; preds = %94
  br label %122

122:                                              ; preds = %121, %39
  %123 = load i32, i32* %10, align 4
  %124 = load i8*, i8** %5, align 8
  call void @llvm.stackrestore(i8* %124)
  ret i32 %123
}

; Function Attrs: noinline nounwind uwtable
define dso_local i32 @main() #0 {
  %1 = alloca i32, align 4
  %2 = alloca i32, align 4
  %3 = alloca i32, align 4
  %4 = alloca i32, align 4
  store i32 0, i32* %1, align 4
  %5 = call i32 (i8*, ...) @__isoc99_scanf(i8* getelementptr inbounds ([3 x i8], [3 x i8]* @.str, i64 0, i64 0), i32* %4)
  br label %6

6:                                                ; preds = %15, %0
  %7 = load i32, i32* %4, align 4
  %8 = icmp sgt i32 %7, 0
  br i1 %8, label %9, label %18

9:                                                ; preds = %6
  %10 = call i32 (i8*, ...) @__isoc99_scanf(i8* getelementptr inbounds ([5 x i8], [5 x i8]* @.str.1, i64 0, i64 0), i32* %2, i32* %3)
  %11 = load i32, i32* %2, align 4
  %12 = load i32, i32* %3, align 4
  %13 = call i32 @sum(i32 %11, i32 %12)
  %14 = call i32 (i8*, ...) @printf(i8* getelementptr inbounds ([4 x i8], [4 x i8]* @.str.2, i64 0, i64 0), i32 %13)
  br label %15

15:                                               ; preds = %9
  %16 = load i32, i32* %4, align 4
  %17 = add nsw i32 %16, -1
  store i32 %17, i32* %4, align 4
  br label %6

18:                                               ; preds = %6
  %19 = load i32, i32* %1, align 4
  ret i32 %19
}